; Function Attrs: mustprogress nounwind uwtable
define internal fastcc void @_ZNSt6vectorIS_IN12_GLOBAL__N_111equiv_bit_tESaIS1_EESaIS3_EED2Ev(ptr noundef nonnull readonly align 8 captures(none) dereferenceable(24) %0) unnamed_addr #3 align 2 personality ptr @__gxx_personality_v0 {
  %2 = load ptr, ptr %0, align 8, !tbaa !345
  %3 = getelementptr inbounds nuw i8, ptr %0, i64 8
  %4 = load ptr, ptr %3, align 8, !tbaa !348
  %.not5.i.i.i = icmp eq ptr %2, %4
  br i1 %.not5.i.i.i, label %_ZSt8_DestroyIPSt6vectorIN12_GLOBAL__N_111equiv_bit_tESaIS2_EES4_EvT_S6_RSaIT0_E.exit, label %.lr.ph.i.i.i

.lr.ph.i.i.i:                                     ; preds = %1, %_ZSt8_DestroyISt6vectorIN12_GLOBAL__N_111equiv_bit_tESaIS2_EEEvPT_.exit.i.i.i
  %.06.i.i.i = phi ptr [ %10, %_ZSt8_DestroyISt6vectorIN12_GLOBAL__N_111equiv_bit_tESaIS2_EEEvPT_.exit.i.i.i ], [ %2, %1 ]
  %.0.val.i.i.i = load ptr, ptr %.06.i.i.i, align 8
  %.not.i.i.i.i.i.i.i = icmp eq ptr %.0.val.i.i.i, null
  br i1 %.not.i.i.i.i.i.i.i, label %_ZSt8_DestroyISt6vectorIN12_GLOBAL__N_111equiv_bit_tESaIS2_EEEvPT_.exit.i.i.i, label %5

5:                                                ; preds = %.lr.ph.i.i.i
  %6 = getelementptr i8, ptr %.06.i.i.i, i64 16
  %.0.val4.i.i.i = load ptr, ptr %6, align 8
  %7 = ptrtoint ptr %.0.val4.i.i.i to i64
  %8 = ptrtoint ptr %.0.val.i.i.i to i64
  %9 = sub i64 %7, %8
  tail call void @_ZdlPvm(ptr noundef nonnull %.0.val.i.i.i, i64 noundef %9) #32
  br label %_ZSt8_DestroyISt6vectorIN12_GLOBAL__N_111equiv_bit_tESaIS2_EEEvPT_.exit.i.i.i

_ZSt8_DestroyISt6vectorIN12_GLOBAL__N_111equiv_bit_tESaIS2_EEEvPT_.exit.i.i.i: ; preds = %5, %.lr.ph.i.i.i
  %10 = getelementptr inbounds nuw i8, ptr %.06.i.i.i, i64 24
  %.not.i.i.i = icmp eq ptr %10, %4
  br i1 %.not.i.i.i, label %_ZSt8_DestroyIPSt6vectorIN12_GLOBAL__N_111equiv_bit_tESaIS2_EES4_EvT_S6_RSaIT0_E.exitthread-pre-split, label %.lr.ph.i.i.i, !llvm.loop !434

_ZSt8_DestroyIPSt6vectorIN12_GLOBAL__N_111equiv_bit_tESaIS2_EES4_EvT_S6_RSaIT0_E.exitthread-pre-split: ; preds = %_ZSt8_DestroyISt6vectorIN12_GLOBAL__N_111equiv_bit_tESaIS2_EEEvPT_.exit.i.i.i
  %.val.pr = load ptr, ptr %0, align 8, !tbaa !345
  br label %_ZSt8_DestroyIPSt6vectorIN12_GLOBAL__N_111equiv_bit_tESaIS2_EES4_EvT_S6_RSaIT0_E.exit

_ZSt8_DestroyIPSt6vectorIN12_GLOBAL__N_111equiv_bit_tESaIS2_EES4_EvT_S6_RSaIT0_E.exit: ; preds = %_ZSt8_DestroyIPSt6vectorIN12_GLOBAL__N_111equiv_bit_tESaIS2_EES4_EvT_S6_RSaIT0_E.exitthread-pre-split, %1
  %.val = phi ptr [ %.val.pr, %_ZSt8_DestroyIPSt6vectorIN12_GLOBAL__N_111equiv_bit_tESaIS2_EES4_EvT_S6_RSaIT0_E.exitthread-pre-split ], [ %2, %1 ]
  %.not.i.i = icmp eq ptr %.val, null
  br i1 %.not.i.i, label %_ZNSt12_Vector_baseISt6vectorIN12_GLOBAL__N_111equiv_bit_tESaIS2_EESaIS4_EED2Ev.exit, label %11

11:                                               ; preds = %_ZSt8_DestroyIPSt6vectorIN12_GLOBAL__N_111equiv_bit_tESaIS2_EES4_EvT_S6_RSaIT0_E.exit
  %12 = getelementptr inbounds nuw i8, ptr %0, i64 16
  %.val1 = load ptr, ptr %12, align 8, !tbaa !352
  %13 = ptrtoint ptr %.val1 to i64
  %14 = ptrtoint ptr %.val to i64
  %15 = sub i64 %13, %14
  tail call void @_ZdlPvm(ptr noundef nonnull %.val, i64 noundef %15) #32
  br label %_ZNSt12_Vector_baseISt6vectorIN12_GLOBAL__N_111equiv_bit_tESaIS2_EESaIS4_EED2Ev.exit

_ZNSt12_Vector_baseISt6vectorIN12_GLOBAL__N_111equiv_bit_tESaIS2_EESaIS4_EED2Ev.exit: ; preds = %_ZSt8_DestroyIPSt6vectorIN12_GLOBAL__N_111equiv_bit_tESaIS2_EES4_EvT_S6_RSaIT0_E.exit, %11
  ret void
}